; Function Attrs: nounwind uwtable
define noalias noundef nonnull ptr @l_MonadExcept_ofExcept___at_Lean_Elab_Command_runLinters___spec__14(ptr noundef %0, ptr readnone captures(none) %1, ptr readnone captures(none) %2, ptr noundef %3) local_unnamed_addr #0 {
  %5 = ptrtoint ptr %0 to i64
  %6 = and i64 %5, 1
  %.not.i = icmp eq i64 %6, 0
  br i1 %.not.i, label %10, label %7

7:                                                ; preds = %4
  %8 = lshr i64 %5, 1
  %9 = trunc i64 %8 to i32
  br label %lean_obj_tag.exit

10:                                               ; preds = %4
  %11 = getelementptr i8, ptr %0, i64 4
  %.val.i = load i32, ptr %11, align 4
  %12 = lshr i32 %.val.i, 24
  br label %lean_obj_tag.exit

lean_obj_tag.exit:                                ; preds = %7, %10
  %.0.i = phi i32 [ %9, %7 ], [ %12, %10 ]
  %13 = icmp eq i32 %.0.i, 0
  %14 = getelementptr inbounds nuw i8, ptr %0, i64 8
  %15 = load ptr, ptr %14, align 8, !tbaa !9
  %16 = ptrtoint ptr %15 to i64
  %17 = and i64 %16, 1
  %.not23 = icmp eq i64 %17, 0
  br i1 %13, label %18, label %28

18:                                               ; preds = %lean_obj_tag.exit
  br i1 %.not23, label %19, label %lean_inc.exit16

19:                                               ; preds = %18
  %.val.i17 = load i32, ptr %15, align 4, !tbaa !4
  %20 = icmp sgt i32 %.val.i17, 0
  br i1 %20, label %21, label %23, !prof !13

21:                                               ; preds = %19
  %22 = add nuw i32 %.val.i17, 1
  store i32 %22, ptr %15, align 4, !tbaa !4
  br label %lean_inc.exit16

23:                                               ; preds = %19
  %.not.i18 = icmp eq i32 %.val.i17, 0
  br i1 %.not.i18, label %lean_inc.exit16, label %24

24:                                               ; preds = %23
  tail call void @lean_inc_ref_cold(ptr noundef nonnull %15) #6
  br label %lean_inc.exit16

lean_inc.exit16:                                  ; preds = %24, %23, %21, %18
  tail call void @lean_inc_heartbeat() #6
  %25 = tail call noalias ptr @mi_malloc_small(i64 noundef 24) #6
  %26 = icmp eq ptr %25, null
  br i1 %26, label %27, label %lean_alloc_ctor.exit

27:                                               ; preds = %lean_inc.exit16
  tail call void @lean_internal_panic_out_of_memory() #7
  unreachable

28:                                               ; preds = %lean_obj_tag.exit
  br i1 %.not23, label %29, label %lean_inc.exit

29:                                               ; preds = %28
  %.val.i19 = load i32, ptr %15, align 4, !tbaa !4
  %30 = icmp sgt i32 %.val.i19, 0
  br i1 %30, label %31, label %33, !prof !13

31:                                               ; preds = %29
  %32 = add nuw i32 %.val.i19, 1
  store i32 %32, ptr %15, align 4, !tbaa !4
  br label %lean_inc.exit

33:                                               ; preds = %29
  %.not.i20 = icmp eq i32 %.val.i19, 0
  br i1 %.not.i20, label %lean_inc.exit, label %34

34:                                               ; preds = %33
  tail call void @lean_inc_ref_cold(ptr noundef nonnull %15) #6
  br label %lean_inc.exit

lean_inc.exit:                                    ; preds = %34, %33, %31, %28
  tail call void @lean_inc_heartbeat() #6
  %35 = tail call noalias ptr @mi_malloc_small(i64 noundef 24) #6
  %36 = icmp eq ptr %35, null
  br i1 %36, label %37, label %lean_alloc_ctor.exit

37:                                               ; preds = %lean_inc.exit
  tail call void @lean_internal_panic_out_of_memory() #7
  unreachable

lean_alloc_ctor.exit:                             ; preds = %lean_inc.exit, %lean_inc.exit16
  %.sink28 = phi ptr [ %25, %lean_inc.exit16 ], [ %35, %lean_inc.exit ]
  %.sink = phi i32 [ 16908312, %lean_inc.exit16 ], [ 131096, %lean_inc.exit ]
  %38 = getelementptr inbounds nuw i8, ptr %.sink28, i64 4
  store i32 1, ptr %.sink28, align 4, !tbaa !4
  store i32 %.sink, ptr %38, align 4
  %39 = getelementptr inbounds nuw i8, ptr %.sink28, i64 8
  store ptr %15, ptr %39, align 8, !tbaa !9
  %40 = getelementptr inbounds nuw i8, ptr %.sink28, i64 16
  store ptr %3, ptr %40, align 8, !tbaa !9
  ret ptr %.sink28
}